; Function Attrs: nounwind uwtable
define dso_local i32 @commit_patch_id(ptr noundef %0, ptr noundef %1, ptr noundef %2, i32 noundef %3) local_unnamed_addr #0 {
  %5 = getelementptr i8, ptr %0, i64 48
  %.val = load ptr, ptr %5, align 8, !tbaa !4
  %.not.i = icmp eq ptr %.val, null
  br i1 %.not.i, label %12, label %patch_id_defined.exit

patch_id_defined.exit:                            ; preds = %4
  %6 = getelementptr inbounds nuw i8, ptr %.val, i64 8
  %7 = load ptr, ptr %6, align 8, !tbaa !15
  %.not2.i.not = icmp eq ptr %7, null
  br i1 %.not2.i.not, label %8, label %16

8:                                                ; preds = %patch_id_defined.exit
  %9 = load ptr, ptr %.val, align 8, !tbaa !18
  %10 = getelementptr inbounds nuw i8, ptr %9, i64 4
  %11 = getelementptr inbounds nuw i8, ptr %0, i64 4
  tail call void @diff_tree_oid(ptr noundef nonnull %10, ptr noundef nonnull %11, ptr noundef nonnull @.str, ptr noundef %1) #6
  br label %14

12:                                               ; preds = %4
  %13 = getelementptr inbounds nuw i8, ptr %0, i64 4
  tail call void @diff_root_tree_oid(ptr noundef nonnull %13, ptr noundef nonnull @.str, ptr noundef %1) #6
  br label %14

14:                                               ; preds = %12, %8
  tail call void @diffcore_std(ptr noundef %1) #6
  %15 = tail call i32 @diff_flush_patch_id(ptr noundef %1, ptr noundef %2, i32 noundef %3) #6
  br label %16

16:                                               ; preds = %patch_id_defined.exit, %14
  %.0 = phi i32 [ %15, %14 ], [ -1, %patch_id_defined.exit ]
  ret i32 %.0
}